; Function Attrs: mustprogress nounwind uwtable
define hidden void @_ZN23ZThreadLocalAllocBuffer12update_statsEP10JavaThread(ptr noundef %0) local_unnamed_addr #0 align 2 {
  %2 = load i8, ptr @UseTLAB, align 1
  %3 = trunc i8 %2 to i1
  br i1 %3, label %4, label %23

4:                                                ; preds = %1
  %5 = tail call noundef ptr @_ZN17StackWatermarkSet4headEP10JavaThread(ptr noundef %0) #4
  %.not7.i.i = icmp ne ptr %5, null
  tail call void @llvm.assume(i1 %.not7.i.i)
  %6 = getelementptr inbounds i8, ptr %5, i64 152
  %7 = load i32, ptr %6, align 8
  %8 = icmp eq i32 %7, 0
  br i1 %8, label %_ZN17StackWatermarkSet3getI15ZStackWatermarkEEPT_P10JavaThread18StackWatermarkKind.exit, label %.lr.ph.i.i

.lr.ph.i.i:                                       ; preds = %4, %.lr.ph.i.i
  %.08.i.i2 = phi ptr [ %10, %.lr.ph.i.i ], [ %5, %4 ]
  %9 = getelementptr inbounds i8, ptr %.08.i.i2, i64 24
  %10 = load ptr, ptr %9, align 8, !nonnull !10, !noundef !10
  %11 = getelementptr inbounds i8, ptr %10, i64 152
  %12 = load i32, ptr %11, align 8
  %13 = icmp eq i32 %12, 0
  br i1 %13, label %_ZN17StackWatermarkSet3getI15ZStackWatermarkEEPT_P10JavaThread18StackWatermarkKind.exit, label %.lr.ph.i.i

_ZN17StackWatermarkSet3getI15ZStackWatermarkEEPT_P10JavaThread18StackWatermarkKind.exit: ; preds = %.lr.ph.i.i, %4
  %.08.i.i.lcssa = phi ptr [ %5, %4 ], [ %10, %.lr.ph.i.i ]
  %14 = load ptr, ptr @_ZN23ZThreadLocalAllocBuffer6_statsE, align 8
  %15 = tail call align 4 ptr @llvm.threadlocal.address.p0(ptr align 4 @_ZN12WorkerThread10_worker_idE)
  %16 = load i32, ptr %15, align 4
  %17 = load i64, ptr %14, align 8
  %18 = zext i32 %16 to i64
  %19 = shl nuw nsw i64 %18, 12
  %20 = add i64 %19, %17
  %21 = inttoptr i64 %20 to ptr
  %22 = tail call noundef nonnull align 8 dereferenceable(64) ptr @_ZN15ZStackWatermark5statsEv(ptr noundef nonnull align 8 dereferenceable(296) %.08.i.i.lcssa) #4
  tail call void @_ZN21ThreadLocalAllocStats6updateERKS_(ptr noundef nonnull align 8 dereferenceable(64) %21, ptr noundef nonnull align 8 dereferenceable(64) %22) #4
  br label %23

23:                                               ; preds = %_ZN17StackWatermarkSet3getI15ZStackWatermarkEEPT_P10JavaThread18StackWatermarkKind.exit, %1
  ret void
}